; Function Attrs: mustprogress uwtable
define void @_ZNK6casadi7Vertcat16split_primitivesERKNS_2MXERN9__gnu_cxx17__normal_iteratorIPS1_St6vectorIS1_SaIS1_EEEE(ptr noundef nonnull align 8 dereferenceable(64) %0, ptr noundef nonnull align 8 dereferenceable(8) %1, ptr noundef nonnull align 1 %2) unnamed_addr #3 align 2 personality ptr @__gxx_personality_v0 {
  %4 = alloca %"class.std::vector", align 8
  %5 = alloca %"class.std::vector.70", align 8
  call void @_ZNK6casadi7Vertcat3offEv(ptr dead_on_unwind nonnull writable sret(%"class.std::vector.70") align 8 %5, ptr noundef nonnull align 8 dereferenceable(64) %0)
  invoke void @_ZN6casadi2MX9vertsplitERKS0_RKSt6vectorIxSaIxEE(ptr dead_on_unwind nonnull writable sret(%"class.std::vector") align 8 %4, ptr noundef nonnull align 8 dereferenceable(8) %1, ptr noundef nonnull align 8 dereferenceable(24) %5)
          to label %_ZN6casadi9vertsplitERKNS_2MXERKSt6vectorIxSaIxEE.exit unwind label %39

_ZN6casadi9vertsplitERKNS_2MXERKSt6vectorIxSaIxEE.exit: ; preds = %3
  %6 = load ptr, ptr %5, align 8
  %.not.i.i.i = icmp eq ptr %6, null
  br i1 %.not.i.i.i, label %_ZNSt6vectorIxSaIxEED2Ev.exit, label %7

7:                                                ; preds = %_ZN6casadi9vertsplitERKNS_2MXERKSt6vectorIxSaIxEE.exit
  call void @_ZdlPv(ptr noundef nonnull %6) #21
  br label %_ZNSt6vectorIxSaIxEED2Ev.exit

_ZNSt6vectorIxSaIxEED2Ev.exit:                    ; preds = %_ZN6casadi9vertsplitERKNS_2MXERKSt6vectorIxSaIxEE.exit, %7
  %8 = getelementptr inbounds i8, ptr %4, i64 8
  %9 = load ptr, ptr %8, align 8
  %10 = load ptr, ptr %4, align 8
  %.not = icmp eq ptr %9, %10
  br i1 %.not, label %_ZSt8_DestroyIPN6casadi2MXES1_EvT_S3_RSaIT0_E.exit.i, label %.lr.ph

.lr.ph:                                           ; preds = %_ZNSt6vectorIxSaIxEED2Ev.exit
  %11 = getelementptr inbounds i8, ptr %0, i64 32
  %12 = getelementptr inbounds i8, ptr %0, i64 40
  br label %13

13:                                               ; preds = %.lr.ph, %30
  %.024 = phi i64 [ 0, %.lr.ph ], [ %31, %30 ]
  %14 = load ptr, ptr %12, align 8
  %15 = load ptr, ptr %11, align 8
  %16 = ptrtoint ptr %14 to i64
  %17 = ptrtoint ptr %15 to i64
  %18 = sub i64 %16, %17
  %19 = ashr exact i64 %18, 3
  %.not.i.i.i11 = icmp ugt i64 %19, %.024
  br i1 %.not.i.i.i11, label %21, label %20

20:                                               ; preds = %13
  invoke void (ptr, ...) @_ZSt24__throw_out_of_range_fmtPKcz(ptr noundef nonnull @.str.27, i64 noundef %.024, i64 noundef %19) #19
          to label %.noexc unwind label %.loopexit.split-lp

.noexc:                                           ; preds = %20
  unreachable

21:                                               ; preds = %13
  %22 = getelementptr inbounds %"class.casadi::MX", ptr %15, i64 %.024
  %23 = invoke noundef ptr @_ZNK6casadi2MXptEv(ptr noundef nonnull align 8 dereferenceable(8) %22)
          to label %24 unwind label %.loopexit

24:                                               ; preds = %21
  %25 = load ptr, ptr %4, align 8
  %26 = getelementptr inbounds %"class.casadi::MX", ptr %25, i64 %.024
  %27 = load ptr, ptr %23, align 8
  %28 = getelementptr inbounds i8, ptr %27, i64 232
  %29 = load ptr, ptr %28, align 8
  invoke void %29(ptr noundef nonnull align 8 dereferenceable(64) %23, ptr noundef nonnull align 8 dereferenceable(8) %26, ptr noundef nonnull align 1 %2)
          to label %30 unwind label %.loopexit

30:                                               ; preds = %24
  %31 = add nuw nsw i64 %.024, 1
  %32 = load ptr, ptr %8, align 8
  %33 = load ptr, ptr %4, align 8
  %34 = ptrtoint ptr %32 to i64
  %35 = ptrtoint ptr %33 to i64
  %36 = sub i64 %34, %35
  %37 = ashr exact i64 %36, 3
  %38 = icmp ult i64 %31, %37
  br i1 %38, label %13, label %._crit_edge, !llvm.loop !49

39:                                               ; preds = %3
  %40 = landingpad { ptr, i32 }
          cleanup
  %41 = load ptr, ptr %5, align 8
  %.not.i.i.i12 = icmp eq ptr %41, null
  br i1 %.not.i.i.i12, label %_ZNSt6vectorIxSaIxEED2Ev.exit13, label %42

42:                                               ; preds = %39
  call void @_ZdlPv(ptr noundef nonnull %41) #21
  br label %_ZNSt6vectorIxSaIxEED2Ev.exit13

.loopexit:                                        ; preds = %21, %24
  %lpad.loopexit = landingpad { ptr, i32 }
          cleanup
  br label %43

.loopexit.split-lp:                               ; preds = %20
  %lpad.loopexit.split-lp = landingpad { ptr, i32 }
          cleanup
  br label %43

43:                                               ; preds = %.loopexit.split-lp, %.loopexit
  %lpad.phi = phi { ptr, i32 } [ %lpad.loopexit, %.loopexit ], [ %lpad.loopexit.split-lp, %.loopexit.split-lp ]
  call void @_ZNSt6vectorIN6casadi2MXESaIS1_EED2Ev(ptr noundef nonnull align 8 dereferenceable(24) %4) #17
  br label %_ZNSt6vectorIxSaIxEED2Ev.exit13

._crit_edge:                                      ; preds = %30
  %.not4.i.i.i.i = icmp eq ptr %33, %32
  br i1 %.not4.i.i.i.i, label %_ZSt8_DestroyIPN6casadi2MXES1_EvT_S3_RSaIT0_E.exit.i, label %.lr.ph.i.i.i.i

.lr.ph.i.i.i.i:                                   ; preds = %._crit_edge, %.lr.ph.i.i.i.i
  %.05.i.i.i.i = phi ptr [ %44, %.lr.ph.i.i.i.i ], [ %33, %._crit_edge ]
  call void @_ZN6casadi2MXD1Ev(ptr noundef nonnull align 8 dereferenceable(8) %.05.i.i.i.i) #17
  %44 = getelementptr inbounds i8, ptr %.05.i.i.i.i, i64 8
  %.not.i.i.i.i = icmp eq ptr %44, %32
  br i1 %.not.i.i.i.i, label %_ZSt8_DestroyIPN6casadi2MXES1_EvT_S3_RSaIT0_E.exitthread-pre-split.i, label %.lr.ph.i.i.i.i, !llvm.loop !24

_ZSt8_DestroyIPN6casadi2MXES1_EvT_S3_RSaIT0_E.exitthread-pre-split.i: ; preds = %.lr.ph.i.i.i.i
  %.pr.i = load ptr, ptr %4, align 8
  br label %_ZSt8_DestroyIPN6casadi2MXES1_EvT_S3_RSaIT0_E.exit.i

_ZSt8_DestroyIPN6casadi2MXES1_EvT_S3_RSaIT0_E.exit.i: ; preds = %_ZNSt6vectorIxSaIxEED2Ev.exit, %_ZSt8_DestroyIPN6casadi2MXES1_EvT_S3_RSaIT0_E.exitthread-pre-split.i, %._crit_edge
  %45 = phi ptr [ %.pr.i, %_ZSt8_DestroyIPN6casadi2MXES1_EvT_S3_RSaIT0_E.exitthread-pre-split.i ], [ %32, %._crit_edge ], [ %9, %_ZNSt6vectorIxSaIxEED2Ev.exit ]
  %.not.i.i.i14 = icmp eq ptr %45, null
  br i1 %.not.i.i.i14, label %_ZNSt6vectorIN6casadi2MXESaIS1_EED2Ev.exit, label %46

46:                                               ; preds = %_ZSt8_DestroyIPN6casadi2MXES1_EvT_S3_RSaIT0_E.exit.i
  call void @_ZdlPv(ptr noundef nonnull %45) #21
  br label %_ZNSt6vectorIN6casadi2MXESaIS1_EED2Ev.exit

_ZNSt6vectorIN6casadi2MXESaIS1_EED2Ev.exit:       ; preds = %_ZSt8_DestroyIPN6casadi2MXES1_EvT_S3_RSaIT0_E.exit.i, %46
  ret void

_ZNSt6vectorIxSaIxEED2Ev.exit13:                  ; preds = %42, %39, %43
  %.pn = phi { ptr, i32 } [ %lpad.phi, %43 ], [ %40, %39 ], [ %40, %42 ]
  resume { ptr, i32 } %.pn
}